target datalayout = "e-m:e-p270:32:32-p271:32:32-p272:64:64-i64:64-i128:128-f80:128-n8:16:32:64-S128"
target triple = "x86_64-pc-linux-gnu"

%struct.PJconsts = type <{ ptr, ptr, ptr, ptr, ptr, ptr, ptr, ptr, ptr, ptr, ptr, ptr, i32, [4 x i8], ptr, ptr, ptr, ptr, ptr, ptr, ptr, ptr, double, double, double, double, double, double, double, double, double, double, double, double, double, double, double, double, double, double, double, double, double, double, i32, i32, i32, i32, i32, i32, i32, i32, i32, i32, i32, [4 x i8], ptr, ptr, ptr, ptr, ptr, ptr, double, double, double, double, double, double, double, double, double, double, double, i32, [4 x i8], [7 x double], i32, [4 x i8], ptr, ptr, double, double, i32, [4 x i8], %"class.std::shared_ptr", i8, [7 x i8], double, i8, [7 x i8], %"class.std::__cxx11::basic_string", %"class.std::__cxx11::basic_string", %"class.std::__cxx11::basic_string", i8, [7 x i8], %"class.std::vector", i32, [4 x i8], %"class.std::vector.3", i32, i8, i8, i8, i8 }>
%"class.std::shared_ptr" = type { %"class.std::__shared_ptr" }
%"class.std::__shared_ptr" = type { ptr, %"class.std::__shared_count" }
%"class.std::__shared_count" = type { ptr }
%"class.std::__cxx11::basic_string" = type { %"struct.std::__cxx11::basic_string<char>::_Alloc_hider", i64, %union.anon }
%"struct.std::__cxx11::basic_string<char>::_Alloc_hider" = type { ptr }
%union.anon = type { i64, [8 x i8] }
%"class.std::vector" = type { %"struct.std::_Vector_base" }
%"struct.std::_Vector_base" = type { %"struct.std::_Vector_base<osgeo::proj::operation::GridDescription, std::allocator<osgeo::proj::operation::GridDescription>>::_Vector_impl" }
%"struct.std::_Vector_base<osgeo::proj::operation::GridDescription, std::allocator<osgeo::proj::operation::GridDescription>>::_Vector_impl" = type { %"struct.std::_Vector_base<osgeo::proj::operation::GridDescription, std::allocator<osgeo::proj::operation::GridDescription>>::_Vector_impl_data" }
%"struct.std::_Vector_base<osgeo::proj::operation::GridDescription, std::allocator<osgeo::proj::operation::GridDescription>>::_Vector_impl_data" = type { ptr, ptr, ptr }
%"class.std::vector.3" = type { %"struct.std::_Vector_base.4" }
%"struct.std::_Vector_base.4" = type { %"struct.std::_Vector_base<PJCoordOperation, std::allocator<PJCoordOperation>>::_Vector_impl" }
%"struct.std::_Vector_base<PJCoordOperation, std::allocator<PJCoordOperation>>::_Vector_impl" = type { %"struct.std::_Vector_base<PJCoordOperation, std::allocator<PJCoordOperation>>::_Vector_impl_data" }
%"struct.std::_Vector_base<PJCoordOperation, std::allocator<PJCoordOperation>>::_Vector_impl_data" = type { ptr, ptr, ptr }
%"struct.(anonymous namespace)::pj_gstmerc_data" = type { double, double, double, double, double, double, double }
%struct.PJ_LP = type { double, double }
%struct.PJ_XY = type { double, double }

; Function Attrs: mustprogress uwtable
define internal { double, double } @_ZL17gstmerc_s_inverse5PJ_XYP8PJconsts(double %0, double %1, ptr noundef %2) #0 {
  %4 = alloca %struct.PJ_LP, align 8
  %5 = alloca %struct.PJ_XY, align 8
  %6 = alloca ptr, align 8
  %7 = alloca ptr, align 8
  %8 = alloca double, align 8
  %9 = alloca double, align 8
  %10 = alloca double, align 8
  %11 = getelementptr inbounds { double, double }, ptr %5, i32 0, i32 0
  store double %0, ptr %11, align 8
  %12 = getelementptr inbounds { double, double }, ptr %5, i32 0, i32 1
  store double %1, ptr %12, align 8
  store ptr %2, ptr %6, align 8
  call void @llvm.memset.p0.i64(ptr align 8 %4, i8 0, i64 16, i1 false)
  %13 = load ptr, ptr %6, align 8
  %14 = getelementptr inbounds %struct.PJconsts, ptr %13, i32 0, i32 11
  %15 = load ptr, ptr %14, align 8
  store ptr %15, ptr %7, align 8
  %16 = getelementptr inbounds %struct.PJ_XY, ptr %5, i32 0, i32 0
  %17 = load double, ptr %16, align 8
  %18 = load ptr, ptr %6, align 8
  %19 = getelementptr inbounds %struct.PJconsts, ptr %18, i32 0, i32 22
  %20 = load double, ptr %19, align 8
  %21 = load ptr, ptr %7, align 8
  %22 = getelementptr inbounds %"struct.(anonymous namespace)::pj_gstmerc_data", ptr %21, i32 0, i32 5
  %23 = load double, ptr %22, align 8
  %24 = fneg double %23
  %25 = call double @llvm.fmuladd.f64(double %17, double %20, double %24)
  %26 = load ptr, ptr %7, align 8
  %27 = getelementptr inbounds %"struct.(anonymous namespace)::pj_gstmerc_data", ptr %26, i32 0, i32 4
  %28 = load double, ptr %27, align 8
  %29 = fdiv double %25, %28
  %30 = call double @sinh(double noundef %29) #7
  %31 = getelementptr inbounds %struct.PJ_XY, ptr %5, i32 0, i32 1
  %32 = load double, ptr %31, align 8
  %33 = load ptr, ptr %6, align 8
  %34 = getelementptr inbounds %struct.PJconsts, ptr %33, i32 0, i32 22
  %35 = load double, ptr %34, align 8
  %36 = load ptr, ptr %7, align 8
  %37 = getelementptr inbounds %"struct.(anonymous namespace)::pj_gstmerc_data", ptr %36, i32 0, i32 6
  %38 = load double, ptr %37, align 8
  %39 = fneg double %38
  %40 = call double @llvm.fmuladd.f64(double %32, double %35, double %39)
  %41 = load ptr, ptr %7, align 8
  %42 = getelementptr inbounds %"struct.(anonymous namespace)::pj_gstmerc_data", ptr %41, i32 0, i32 4
  %43 = load double, ptr %42, align 8
  %44 = fdiv double %40, %43
  %45 = call double @cos(double noundef %44) #7
  %46 = fdiv double %30, %45
  %47 = call double @atan(double noundef %46) #7
  store double %47, ptr %8, align 8
  %48 = getelementptr inbounds %struct.PJ_XY, ptr %5, i32 0, i32 1
  %49 = load double, ptr %48, align 8
  %50 = load ptr, ptr %6, align 8
  %51 = getelementptr inbounds %struct.PJconsts, ptr %50, i32 0, i32 22
  %52 = load double, ptr %51, align 8
  %53 = load ptr, ptr %7, align 8
  %54 = getelementptr inbounds %"struct.(anonymous namespace)::pj_gstmerc_data", ptr %53, i32 0, i32 6
  %55 = load double, ptr %54, align 8
  %56 = fneg double %55
  %57 = call double @llvm.fmuladd.f64(double %49, double %52, double %56)
  %58 = load ptr, ptr %7, align 8
  %59 = getelementptr inbounds %"struct.(anonymous namespace)::pj_gstmerc_data", ptr %58, i32 0, i32 4
  %60 = load double, ptr %59, align 8
  %61 = fdiv double %57, %60
  %62 = call double @sin(double noundef %61) #7
  %63 = getelementptr inbounds %struct.PJ_XY, ptr %5, i32 0, i32 0
  %64 = load double, ptr %63, align 8
  %65 = load ptr, ptr %6, align 8
  %66 = getelementptr inbounds %struct.PJconsts, ptr %65, i32 0, i32 22
  %67 = load double, ptr %66, align 8
  %68 = load ptr, ptr %7, align 8
  %69 = getelementptr inbounds %"struct.(anonymous namespace)::pj_gstmerc_data", ptr %68, i32 0, i32 5
  %70 = load double, ptr %69, align 8
  %71 = fneg double %70
  %72 = call double @llvm.fmuladd.f64(double %64, double %67, double %71)
  %73 = load ptr, ptr %7, align 8
  %74 = getelementptr inbounds %"struct.(anonymous namespace)::pj_gstmerc_data", ptr %73, i32 0, i32 4
  %75 = load double, ptr %74, align 8
  %76 = fdiv double %72, %75
  %77 = call double @cosh(double noundef %76) #7
  %78 = fdiv double %62, %77
  store double %78, ptr %10, align 8
  %79 = load double, ptr %10, align 8
  %80 = call double @asin(double noundef %79) #7
  %81 = fneg double %80
  %82 = load double, ptr %10, align 8
  %83 = fneg double %82
  %84 = call noundef double @_Z7pj_tsfnddd(double noundef %81, double noundef %83, double noundef 0.000000e+00)
  %85 = call double @log(double noundef %84) #7
  store double %85, ptr %9, align 8
  %86 = load double, ptr %8, align 8
  %87 = load ptr, ptr %7, align 8
  %88 = getelementptr inbounds %"struct.(anonymous namespace)::pj_gstmerc_data", ptr %87, i32 0, i32 3
  %89 = load double, ptr %88, align 8
  %90 = fdiv double %86, %89
  %91 = getelementptr inbounds %struct.PJ_LP, ptr %4, i32 0, i32 0
  store double %90, ptr %91, align 8
  %92 = load ptr, ptr %6, align 8
  %93 = getelementptr inbounds %struct.PJconsts, ptr %92, i32 0, i32 0
  %94 = load ptr, ptr %93, align 8
  %95 = load double, ptr %9, align 8
  %96 = load ptr, ptr %7, align 8
  %97 = getelementptr inbounds %"struct.(anonymous namespace)::pj_gstmerc_data", ptr %96, i32 0, i32 2
  %98 = load double, ptr %97, align 8
  %99 = fsub double %95, %98
  %100 = load ptr, ptr %7, align 8
  %101 = getelementptr inbounds %"struct.(anonymous namespace)::pj_gstmerc_data", ptr %100, i32 0, i32 3
  %102 = load double, ptr %101, align 8
  %103 = fdiv double %99, %102
  %104 = call double @exp(double noundef %103) #7
  %105 = load ptr, ptr %6, align 8
  %106 = getelementptr inbounds %struct.PJconsts, ptr %105, i32 0, i32 27
  %107 = load double, ptr %106, align 8
  %108 = call noundef double @_Z7pj_phi2P6pj_ctxdd(ptr noundef %94, double noundef %104, double noundef %107)
  %109 = fneg double %108
  %110 = getelementptr inbounds %struct.PJ_LP, ptr %4, i32 0, i32 1
  store double %109, ptr %110, align 8
  %111 = load { double, double }, ptr %4, align 8
  ret { double, double } %111
}