; Function Attrs: mustprogress uwtable
define internal { double, double } @_ZL17gstmerc_s_inverse5PJ_XYP8PJconsts(double %0, double %1, ptr nocapture noundef readonly %2) #0 {
  %4 = getelementptr inbounds i8, ptr %2, i64 88
  %5 = load ptr, ptr %4, align 8
  %6 = getelementptr inbounds i8, ptr %2, i64 168
  %7 = load double, ptr %6, align 8
  %8 = getelementptr inbounds i8, ptr %5, i64 40
  %9 = load double, ptr %8, align 8
  %10 = fneg double %9
  %11 = tail call double @llvm.fmuladd.f64(double %0, double %7, double %10)
  %12 = getelementptr inbounds i8, ptr %5, i64 32
  %13 = load double, ptr %12, align 8
  %14 = fdiv double %11, %13
  %15 = tail call double @sinh(double noundef %14) #7
  %16 = load double, ptr %6, align 8
  %17 = getelementptr inbounds i8, ptr %5, i64 48
  %18 = load double, ptr %17, align 8
  %19 = fneg double %18
  %20 = tail call double @llvm.fmuladd.f64(double %1, double %16, double %19)
  %21 = load double, ptr %12, align 8
  %22 = fdiv double %20, %21
  %23 = tail call double @cos(double noundef %22) #7
  %24 = fdiv double %15, %23
  %25 = tail call double @atan(double noundef %24) #7
  %26 = load double, ptr %6, align 8
  %27 = load double, ptr %17, align 8
  %28 = fneg double %27
  %29 = tail call double @llvm.fmuladd.f64(double %1, double %26, double %28)
  %30 = load double, ptr %12, align 8
  %31 = fdiv double %29, %30
  %32 = tail call double @sin(double noundef %31) #7
  %33 = load double, ptr %6, align 8
  %34 = load double, ptr %8, align 8
  %35 = fneg double %34
  %36 = tail call double @llvm.fmuladd.f64(double %0, double %33, double %35)
  %37 = load double, ptr %12, align 8
  %38 = fdiv double %36, %37
  %39 = tail call double @cosh(double noundef %38) #7
  %40 = fdiv double %32, %39
  %41 = tail call double @asin(double noundef %40) #7
  %42 = fneg double %41
  %43 = fneg double %40
  %44 = tail call noundef double @_Z7pj_tsfnddd(double noundef %42, double noundef %43, double noundef 0.000000e+00)
  %45 = tail call double @log(double noundef %44) #7
  %46 = getelementptr inbounds i8, ptr %5, i64 24
  %47 = load double, ptr %46, align 8
  %48 = fdiv double %25, %47
  %49 = load ptr, ptr %2, align 8
  %50 = getelementptr inbounds i8, ptr %5, i64 16
  %51 = load double, ptr %50, align 8
  %52 = fsub double %45, %51
  %53 = fdiv double %52, %47
  %54 = tail call double @exp(double noundef %53) #7
  %55 = getelementptr inbounds i8, ptr %2, i64 208
  %56 = load double, ptr %55, align 8
  %57 = tail call noundef double @_Z7pj_phi2P6pj_ctxdd(ptr noundef %49, double noundef %54, double noundef %56)
  %58 = fneg double %57
  %.fca.0.insert = insertvalue { double, double } poison, double %48, 0
  %.fca.1.insert = insertvalue { double, double } %.fca.0.insert, double %58, 1
  ret { double, double } %.fca.1.insert
}